target datalayout = "e-m:e-p270:32:32-p271:32:32-p272:64:64-i64:64-i128:128-f80:128-n8:16:32:64-S128"
target triple = "x86_64-pc-linux-gnu"

@the_repository = external global ptr, align 8
@.str.2 = private unnamed_addr constant [35 x i8] c"'%s' is outside repository at '%s'\00", align 1

; Function Attrs: nounwind uwtable
define dso_local ptr @prefix_path(ptr noundef %0, i32 noundef %1, ptr noundef %2) #0 {
  %4 = alloca ptr, align 8
  %5 = alloca i32, align 4
  %6 = alloca ptr, align 8
  %7 = alloca ptr, align 8
  %8 = alloca ptr, align 8
  store ptr %0, ptr %4, align 8, !tbaa !4
  store i32 %1, ptr %5, align 4, !tbaa !9
  store ptr %2, ptr %6, align 8, !tbaa !4
  call void @llvm.lifetime.start.p0(i64 8, ptr %7) #13
  %9 = load ptr, ptr %4, align 8, !tbaa !4
  %10 = load i32, ptr %5, align 4, !tbaa !9
  %11 = load ptr, ptr %6, align 8, !tbaa !4
  %12 = call ptr @prefix_path_gently(ptr noundef %9, i32 noundef %10, ptr noundef null, ptr noundef %11)
  store ptr %12, ptr %7, align 8, !tbaa !4
  %13 = load ptr, ptr %7, align 8, !tbaa !4
  %14 = icmp ne ptr %13, null
  br i1 %14, label %28, label %15

15:                                               ; preds = %3
  call void @llvm.lifetime.start.p0(i64 8, ptr %8) #13
  %16 = load ptr, ptr @the_repository, align 8, !tbaa !14
  %17 = call ptr @repo_get_work_tree(ptr noundef %16)
  store ptr %17, ptr %8, align 8, !tbaa !4
  %18 = load ptr, ptr %8, align 8, !tbaa !4
  %19 = icmp ne ptr %18, null
  br i1 %19, label %23, label %20

20:                                               ; preds = %15
  %21 = load ptr, ptr @the_repository, align 8, !tbaa !14
  %22 = call ptr @repo_get_git_dir(ptr noundef %21)
  store ptr %22, ptr %8, align 8, !tbaa !4
  br label %23

23:                                               ; preds = %20, %15
  %24 = call ptr @_(ptr noundef @.str.2)
  %25 = load ptr, ptr %6, align 8, !tbaa !4
  %26 = load ptr, ptr %8, align 8, !tbaa !4
  %27 = call ptr @absolute_path(ptr noundef %26)
  call void (ptr, ...) @die(ptr noundef %24, ptr noundef %25, ptr noundef %27) #15
  unreachable

28:                                               ; preds = %3
  %29 = load ptr, ptr %7, align 8, !tbaa !4
  call void @llvm.lifetime.end.p0(i64 8, ptr %7) #13
  ret ptr %29
}