; Function Attrs: nounwind uwtable
define dso_local nonnull ptr @prefix_path(ptr noundef %0, i32 noundef %1, ptr noundef %2) local_unnamed_addr #0 {
  %4 = tail call ptr @prefix_path_gently(ptr noundef %0, i32 noundef %1, ptr noundef null, ptr noundef %2)
  %.not = icmp eq ptr %4, null
  br i1 %.not, label %5, label %14

5:                                                ; preds = %3
  %6 = load ptr, ptr @the_repository, align 8, !tbaa !9
  %7 = tail call ptr @repo_get_work_tree(ptr noundef %6) #25
  %.not9 = icmp eq ptr %7, null
  br i1 %.not9, label %8, label %11

8:                                                ; preds = %5
  %9 = load ptr, ptr @the_repository, align 8, !tbaa !9
  %10 = tail call ptr @repo_get_git_dir(ptr noundef %9) #25
  br label %11

11:                                               ; preds = %8, %5
  %.0 = phi ptr [ %7, %5 ], [ %10, %8 ]
  %12 = tail call fastcc ptr @_(ptr noundef nonnull @.str.2)
  %13 = tail call ptr @absolute_path(ptr noundef %.0) #25
  tail call void (ptr, ...) @die(ptr noundef %12, ptr noundef %2, ptr noundef %13) #26
  unreachable

14:                                               ; preds = %3
  ret ptr %4
}